target datalayout = "e-m:e-p270:32:32-p271:32:32-p272:64:64-i64:64-i128:128-f80:128-n8:16:32:64-S128"
target triple = "x86_64-pc-linux-gnu"

%struct.DdManager = type { %struct.DdNode, ptr, ptr, ptr, ptr, ptr, ptr, ptr, i32, i32, double, double, double, i32, i32, i32, i32, i32, i32, ptr, ptr, %struct.DdSubtable, i32, i32, i32, i32, i32, i32, i32, double, i32, i32, i32, ptr, i64, double, i32, ptr, ptr, ptr, ptr, ptr, ptr, ptr, i32, ptr, ptr, ptr, ptr, ptr, ptr, i32, i32, i32, double, i32, i32, i32, i32, double, double, i32, i32, i32, i32, i32, i32, i32, i32, i32, ptr, ptr, i32, i32, i32, i32, i32, i32, ptr, ptr, ptr, ptr, ptr, ptr, ptr, ptr, i32, i64, i64, i64, i32, i64, i64, double, double, double, double, double, double, i32, ptr, ptr, i64 }
%struct.DdNode = type { i32, i32, ptr, %union.anon, i64 }
%union.anon = type { %struct.DdChildren }
%struct.DdChildren = type { ptr, ptr }
%struct.DdSubtable = type { ptr, i32, i32, i32, i32, i32, i32, i32, i32, i32, i32, i32 }

@.str = private unnamed_addr constant [47 x i8] c"out-of-memory, couldn't measure DD cofactors.\0A\00", align 1
@size = internal global i32 0, align 4

; Function Attrs: nounwind uwtable
define ptr @Cudd_CofMinterm(ptr noundef %0, ptr noundef %1) #0 {
  %3 = alloca ptr, align 8
  %4 = alloca ptr, align 8
  %5 = alloca ptr, align 8
  %6 = alloca ptr, align 8
  %7 = alloca ptr, align 8
  %8 = alloca ptr, align 8
  %9 = alloca i32, align 4
  %10 = alloca i32, align 4
  store ptr %0, ptr %4, align 8
  store ptr %1, ptr %5, align 8
  store ptr null, ptr %8, align 8
  %11 = call ptr @st__init_table(ptr noundef @st__ptrcmp, ptr noundef @st__ptrhash)
  store ptr %11, ptr %6, align 8
  %12 = load ptr, ptr %6, align 8
  %13 = icmp eq ptr %12, null
  br i1 %13, label %14, label %21

14:                                               ; preds = %2
  %15 = load ptr, ptr %4, align 8
  %16 = getelementptr inbounds %struct.DdManager, ptr %15, i32 0, i32 85
  %17 = load ptr, ptr %16, align 8
  %18 = call i32 (ptr, ptr, ...) @fprintf(ptr noundef %17, ptr noundef @.str) #4
  %19 = load ptr, ptr %4, align 8
  %20 = getelementptr inbounds %struct.DdManager, ptr %19, i32 0, i32 86
  store i32 1, ptr %20, align 8
  store ptr null, ptr %3, align 8
  br label %201

21:                                               ; preds = %2
  %22 = load ptr, ptr %4, align 8
  %23 = getelementptr inbounds %struct.DdManager, ptr %22, i32 0, i32 15
  %24 = load i32, ptr %23, align 8
  store i32 %24, ptr @size, align 4
  %25 = load ptr, ptr %4, align 8
  %26 = load ptr, ptr %5, align 8
  %27 = load ptr, ptr %6, align 8
  %28 = call ptr @ddCofMintermAux(ptr noundef %25, ptr noundef %26, ptr noundef %27)
  store ptr %28, ptr %7, align 8
  %29 = load ptr, ptr %7, align 8
  %30 = icmp ne ptr %29, null
  br i1 %30, label %31, label %171

31:                                               ; preds = %21
  %32 = load i32, ptr @size, align 4
  %33 = add nsw i32 %32, 1
  %34 = sext i32 %33 to i64
  %35 = mul i64 8, %34
  %36 = call noalias ptr @malloc(i64 noundef %35) #5
  store ptr %36, ptr %8, align 8
  %37 = load ptr, ptr %8, align 8
  %38 = icmp ne ptr %37, null
  br i1 %38, label %39, label %167

39:                                               ; preds = %31
  %40 = load ptr, ptr %5, align 8
  %41 = ptrtoint ptr %40 to i64
  %42 = and i64 %41, -2
  %43 = inttoptr i64 %42 to ptr
  %44 = getelementptr inbounds %struct.DdNode, ptr %43, i32 0, i32 0
  %45 = load i32, ptr %44, align 8
  %46 = icmp eq i32 %45, 2147483647
  br i1 %46, label %47, label %48

47:                                               ; preds = %39
  store i32 1, ptr %10, align 4
  br label %78

48:                                               ; preds = %39
  %49 = load ptr, ptr %5, align 8
  %50 = ptrtoint ptr %49 to i64
  %51 = and i64 %50, -2
  %52 = inttoptr i64 %51 to ptr
  %53 = getelementptr inbounds %struct.DdNode, ptr %52, i32 0, i32 0
  %54 = load i32, ptr %53, align 8
  %55 = icmp eq i32 %54, 2147483647
  br i1 %55, label %56, label %63

56:                                               ; preds = %48
  %57 = load ptr, ptr %5, align 8
  %58 = ptrtoint ptr %57 to i64
  %59 = and i64 %58, -2
  %60 = inttoptr i64 %59 to ptr
  %61 = getelementptr inbounds %struct.DdNode, ptr %60, i32 0, i32 0
  %62 = load i32, ptr %61, align 8
  br label %76

63:                                               ; preds = %48
  %64 = load ptr, ptr %4, align 8
  %65 = getelementptr inbounds %struct.DdManager, ptr %64, i32 0, i32 37
  %66 = load ptr, ptr %65, align 8
  %67 = load ptr, ptr %5, align 8
  %68 = ptrtoint ptr %67 to i64
  %69 = and i64 %68, -2
  %70 = inttoptr i64 %69 to ptr
  %71 = getelementptr inbounds %struct.DdNode, ptr %70, i32 0, i32 0
  %72 = load i32, ptr %71, align 8
  %73 = zext i32 %72 to i64
  %74 = getelementptr inbounds i32, ptr %66, i64 %73
  %75 = load i32, ptr %74, align 4
  br label %76

76:                                               ; preds = %63, %56
  %77 = phi i32 [ %62, %56 ], [ %75, %63 ]
  store i32 %77, ptr %10, align 4
  br label %78

78:                                               ; preds = %76, %47
  store i32 0, ptr %9, align 4
  br label %79

79:                                               ; preds = %152, %78
  %80 = load i32, ptr %9, align 4
  %81 = load i32, ptr @size, align 4
  %82 = icmp slt i32 %80, %81
  br i1 %82, label %83, label %155

83:                                               ; preds = %79
  %84 = load i32, ptr %9, align 4
  %85 = load ptr, ptr %5, align 8
  %86 = ptrtoint ptr %85 to i64
  %87 = and i64 %86, -2
  %88 = inttoptr i64 %87 to ptr
  %89 = getelementptr inbounds %struct.DdNode, ptr %88, i32 0, i32 0
  %90 = load i32, ptr %89, align 8
  %91 = icmp eq i32 %90, 2147483647
  br i1 %91, label %92, label %99

92:                                               ; preds = %83
  %93 = load ptr, ptr %5, align 8
  %94 = ptrtoint ptr %93 to i64
  %95 = and i64 %94, -2
  %96 = inttoptr i64 %95 to ptr
  %97 = getelementptr inbounds %struct.DdNode, ptr %96, i32 0, i32 0
  %98 = load i32, ptr %97, align 8
  br label %112

99:                                               ; preds = %83
  %100 = load ptr, ptr %4, align 8
  %101 = getelementptr inbounds %struct.DdManager, ptr %100, i32 0, i32 37
  %102 = load ptr, ptr %101, align 8
  %103 = load ptr, ptr %5, align 8
  %104 = ptrtoint ptr %103 to i64
  %105 = and i64 %104, -2
  %106 = inttoptr i64 %105 to ptr
  %107 = getelementptr inbounds %struct.DdNode, ptr %106, i32 0, i32 0
  %108 = load i32, ptr %107, align 8
  %109 = zext i32 %108 to i64
  %110 = getelementptr inbounds i32, ptr %102, i64 %109
  %111 = load i32, ptr %110, align 4
  br label %112

112:                                              ; preds = %99, %92
  %113 = phi i32 [ %98, %92 ], [ %111, %99 ]
  %114 = icmp sge i32 %84, %113
  br i1 %114, label %115, label %133

115:                                              ; preds = %112
  %116 = load ptr, ptr %7, align 8
  %117 = load i32, ptr %9, align 4
  %118 = load i32, ptr %10, align 4
  %119 = sub nsw i32 %117, %118
  %120 = sext i32 %119 to i64
  %121 = getelementptr inbounds double, ptr %116, i64 %120
  %122 = load double, ptr %121, align 8
  %123 = load ptr, ptr %8, align 8
  %124 = load ptr, ptr %4, align 8
  %125 = getelementptr inbounds %struct.DdManager, ptr %124, i32 0, i32 39
  %126 = load ptr, ptr %125, align 8
  %127 = load i32, ptr %9, align 4
  %128 = sext i32 %127 to i64
  %129 = getelementptr inbounds i32, ptr %126, i64 %128
  %130 = load i32, ptr %129, align 4
  %131 = sext i32 %130 to i64
  %132 = getelementptr inbounds double, ptr %123, i64 %131
  store double %122, ptr %132, align 8
  br label %151

133:                                              ; preds = %112
  %134 = load ptr, ptr %7, align 8
  %135 = load i32, ptr @size, align 4
  %136 = load i32, ptr %10, align 4
  %137 = sub nsw i32 %135, %136
  %138 = sext i32 %137 to i64
  %139 = getelementptr inbounds double, ptr %134, i64 %138
  %140 = load double, ptr %139, align 8
  %141 = load ptr, ptr %8, align 8
  %142 = load ptr, ptr %4, align 8
  %143 = getelementptr inbounds %struct.DdManager, ptr %142, i32 0, i32 39
  %144 = load ptr, ptr %143, align 8
  %145 = load i32, ptr %9, align 4
  %146 = sext i32 %145 to i64
  %147 = getelementptr inbounds i32, ptr %144, i64 %146
  %148 = load i32, ptr %147, align 4
  %149 = sext i32 %148 to i64
  %150 = getelementptr inbounds double, ptr %141, i64 %149
  store double %140, ptr %150, align 8
  br label %151

151:                                              ; preds = %133, %115
  br label %152

152:                                              ; preds = %151
  %153 = load i32, ptr %9, align 4
  %154 = add nsw i32 %153, 1
  store i32 %154, ptr %9, align 4
  br label %79, !llvm.loop !4

155:                                              ; preds = %79
  %156 = load ptr, ptr %7, align 8
  %157 = load i32, ptr @size, align 4
  %158 = load i32, ptr %10, align 4
  %159 = sub nsw i32 %157, %158
  %160 = sext i32 %159 to i64
  %161 = getelementptr inbounds double, ptr %156, i64 %160
  %162 = load double, ptr %161, align 8
  %163 = load ptr, ptr %8, align 8
  %164 = load i32, ptr @size, align 4
  %165 = sext i32 %164 to i64
  %166 = getelementptr inbounds double, ptr %163, i64 %165
  store double %162, ptr %166, align 8
  br label %170

167:                                              ; preds = %31
  %168 = load ptr, ptr %4, align 8
  %169 = getelementptr inbounds %struct.DdManager, ptr %168, i32 0, i32 86
  store i32 1, ptr %169, align 8
  br label %170

170:                                              ; preds = %167, %155
  br label %171

171:                                              ; preds = %170, %21
  %172 = load ptr, ptr %5, align 8
  %173 = ptrtoint ptr %172 to i64
  %174 = and i64 %173, -2
  %175 = inttoptr i64 %174 to ptr
  %176 = getelementptr inbounds %struct.DdNode, ptr %175, i32 0, i32 1
  %177 = load i32, ptr %176, align 4
  %178 = icmp eq i32 %177, 1
  br i1 %178, label %179, label %186

179:                                              ; preds = %171
  %180 = load ptr, ptr %7, align 8
  %181 = icmp ne ptr %180, null
  br i1 %181, label %182, label %184

182:                                              ; preds = %179
  %183 = load ptr, ptr %7, align 8
  call void @free(ptr noundef %183) #4
  store ptr null, ptr %7, align 8
  br label %185

184:                                              ; preds = %179
  br label %185

185:                                              ; preds = %184, %182
  br label %186

186:                                              ; preds = %185, %171
  %187 = load ptr, ptr %6, align 8
  %188 = call i32 @st__foreach(ptr noundef %187, ptr noundef @cuddStCountfree, ptr noundef null)
  %189 = load ptr, ptr %6, align 8
  call void @st__free_table(ptr noundef %189)
  %190 = load ptr, ptr %8, align 8
  %191 = icmp eq ptr %190, null
  br i1 %191, label %192, label %199

192:                                              ; preds = %186
  %193 = load ptr, ptr %4, align 8
  %194 = getelementptr inbounds %struct.DdManager, ptr %193, i32 0, i32 84
  %195 = load ptr, ptr %194, align 8
  %196 = call i32 (ptr, ptr, ...) @fprintf(ptr noundef %195, ptr noundef @.str) #4
  %197 = load ptr, ptr %4, align 8
  %198 = getelementptr inbounds %struct.DdManager, ptr %197, i32 0, i32 86
  store i32 1, ptr %198, align 8
  br label %199

199:                                              ; preds = %192, %186
  %200 = load ptr, ptr %8, align 8
  store ptr %200, ptr %3, align 8
  br label %201

201:                                              ; preds = %199, %14
  %202 = load ptr, ptr %3, align 8
  ret ptr %202
}