; Function Attrs: nounwind uwtable
define noundef ptr @Cudd_CofMinterm(ptr noundef %0, ptr noundef %1) local_unnamed_addr #0 {
  %3 = tail call ptr @st__init_table(ptr noundef nonnull @st__ptrcmp, ptr noundef nonnull @st__ptrhash) #5
  %4 = icmp eq ptr %3, null
  br i1 %4, label %.sink.split, label %5

5:                                                ; preds = %2
  %6 = getelementptr inbounds nuw i8, ptr %0, i64 136
  %7 = load i32, ptr %6, align 8
  store i32 %7, ptr @size, align 4
  %8 = tail call fastcc ptr @ddCofMintermAux(ptr noundef %0, ptr noundef %1, ptr noundef %3)
  %.not61 = icmp eq ptr %8, null
  br i1 %.not61, label %.thread, label %9

9:                                                ; preds = %5
  %10 = load i32, ptr @size, align 4
  %11 = add nsw i32 %10, 1
  %12 = sext i32 %11 to i64
  %13 = shl nsw i64 %12, 3
  %14 = tail call noalias ptr @malloc(i64 noundef %13) #6
  %.not = icmp eq ptr %14, null
  br i1 %.not, label %53, label %15

15:                                               ; preds = %9
  %16 = ptrtoint ptr %1 to i64
  %17 = and i64 %16, -2
  %18 = inttoptr i64 %17 to ptr
  %19 = load i32, ptr %18, align 8
  %20 = icmp eq i32 %19, 2147483647
  br i1 %20, label %27, label %21

21:                                               ; preds = %15
  %22 = getelementptr inbounds nuw i8, ptr %0, i64 312
  %23 = load ptr, ptr %22, align 8
  %24 = zext i32 %19 to i64
  %25 = getelementptr inbounds nuw i32, ptr %23, i64 %24
  %26 = load i32, ptr %25, align 4
  br label %27

27:                                               ; preds = %15, %21
  %.0 = phi i32 [ %26, %21 ], [ 1, %15 ]
  %28 = icmp sgt i32 %10, 0
  br i1 %28, label %.lr.ph, label %.._crit_edge_crit_edge

.._crit_edge_crit_edge:                           ; preds = %27
  %.pre68 = sub nsw i32 %10, %.0
  %.pre70 = sext i32 %.pre68 to i64
  br label %._crit_edge

.lr.ph:                                           ; preds = %27
  %29 = getelementptr inbounds nuw i8, ptr %0, i64 312
  %30 = getelementptr inbounds nuw i8, ptr %0, i64 328
  %31 = sub nsw i32 %10, %.0
  %32 = sext i32 %31 to i64
  %33 = sext i32 %.0 to i64
  %wide.trip.count = zext nneg i32 %10 to i64
  %34 = zext i32 %19 to i64
  %35 = load ptr, ptr %30, align 8
  br label %36

36:                                               ; preds = %.lr.ph, %42
  %indvars.iv = phi i64 [ 0, %.lr.ph ], [ %indvars.iv.next, %42 ]
  br i1 %20, label %42, label %37

37:                                               ; preds = %36
  %38 = load ptr, ptr %29, align 8
  %39 = getelementptr inbounds nuw i32, ptr %38, i64 %34
  %40 = load i32, ptr %39, align 4
  %41 = sext i32 %40 to i64
  br label %42

42:                                               ; preds = %36, %37
  %43 = phi i64 [ %41, %37 ], [ 2147483647, %36 ]
  %.not57 = icmp slt i64 %indvars.iv, %43
  %44 = sub nsw i64 %indvars.iv, %33
  %.pn = select i1 %.not57, i64 %32, i64 %44
  %.sink.in = getelementptr inbounds double, ptr %8, i64 %.pn
  %.sink = load double, ptr %.sink.in, align 8
  %45 = getelementptr inbounds nuw i32, ptr %35, i64 %indvars.iv
  %46 = load i32, ptr %45, align 4
  %47 = sext i32 %46 to i64
  %48 = getelementptr inbounds double, ptr %14, i64 %47
  store double %.sink, ptr %48, align 8
  %indvars.iv.next = add nuw nsw i64 %indvars.iv, 1
  %exitcond.not = icmp eq i64 %indvars.iv.next, %wide.trip.count
  br i1 %exitcond.not, label %._crit_edge, label %36, !llvm.loop !4

._crit_edge:                                      ; preds = %42, %.._crit_edge_crit_edge
  %.pre-phi71 = phi i64 [ %.pre70, %.._crit_edge_crit_edge ], [ %32, %42 ]
  %49 = getelementptr inbounds double, ptr %8, i64 %.pre-phi71
  %50 = load double, ptr %49, align 8
  %51 = sext i32 %10 to i64
  %52 = getelementptr inbounds double, ptr %14, i64 %51
  store double %50, ptr %52, align 8
  br label %55

53:                                               ; preds = %9
  %54 = getelementptr inbounds nuw i8, ptr %0, i64 624
  store i32 1, ptr %54, align 8
  %.pre = ptrtoint ptr %1 to i64
  %.pre64 = and i64 %.pre, -2
  %.pre66 = inttoptr i64 %.pre64 to ptr
  br label %55

55:                                               ; preds = %._crit_edge, %53
  %.pre-phi67 = phi ptr [ %18, %._crit_edge ], [ %.pre66, %53 ]
  %56 = getelementptr inbounds nuw i8, ptr %.pre-phi67, i64 4
  %57 = load i32, ptr %56, align 4
  %58 = icmp eq i32 %57, 1
  br i1 %58, label %59, label %.thread

59:                                               ; preds = %55
  tail call void @free(ptr noundef nonnull %8) #5
  br label %.thread

.thread:                                          ; preds = %5, %59, %55
  %.04760 = phi ptr [ %14, %59 ], [ %14, %55 ], [ null, %5 ]
  %60 = tail call i32 @st__foreach(ptr noundef nonnull %3, ptr noundef nonnull @cuddStCountfree, ptr noundef null) #5
  tail call void @st__free_table(ptr noundef nonnull %3) #5
  %61 = icmp eq ptr %.04760, null
  br i1 %61, label %.sink.split, label %66

.sink.split:                                      ; preds = %.thread, %2
  %.sink80 = phi i64 [ 616, %2 ], [ 608, %.thread ]
  %62 = getelementptr inbounds nuw i8, ptr %0, i64 %.sink80
  %63 = load ptr, ptr %62, align 8
  %64 = tail call i64 @fwrite(ptr nonnull @.str, i64 46, i64 1, ptr %63)
  %65 = getelementptr inbounds nuw i8, ptr %0, i64 624
  store i32 1, ptr %65, align 8
  br label %66

66:                                               ; preds = %.sink.split, %.thread
  %.048 = phi ptr [ %.04760, %.thread ], [ null, %.sink.split ]
  ret ptr %.048
}